; ModuleID = 'bench/abc/original/reoUnits.ll'
source_filename = "bench/abc/original/reoUnits.ll"
target datalayout = "e-m:e-p270:32:32-p271:32:32-p272:64:64-i64:64-i128:128-f80:128-n8:16:32:64-S128"
target triple = "x86_64-pc-linux-gnu"

%struct._reo_unit = type { i16, i16, i16, i16, i32, ptr, ptr, ptr, double }

@stdout = external local_unnamed_addr global ptr, align 8
@str = private unnamed_addr constant [63 x i8] c"reoUnitsAddToFreeUnitList(): Memory manager ran out of memory!\00", align 1

; Function Attrs: nofree nounwind uwtable
define ptr @reoUnitsGetNextUnit(ptr noundef captures(none) %0) local_unnamed_addr #0 {
  %2 = getelementptr inbounds nuw i8, ptr %0, i64 240
  %3 = load ptr, ptr %2, align 8, !tbaa !3
  %4 = icmp eq ptr %3, null
  br i1 %4, label %5, label %reoUnitsAddToFreeUnitList.exit

5:                                                ; preds = %1
  %6 = getelementptr inbounds nuw i8, ptr %0, i64 256
  %7 = load i32, ptr %6, align 8, !tbaa !18
  %8 = getelementptr inbounds nuw i8, ptr %0, i64 260
  %9 = load i32, ptr %8, align 4, !tbaa !19
  %10 = icmp eq i32 %7, %9
  br i1 %10, label %11, label %14

11:                                               ; preds = %5
  %puts.i = tail call i32 @puts(ptr nonnull dereferenceable(1) @str)
  %12 = load ptr, ptr @stdout, align 8, !tbaa !20
  %13 = tail call i32 @fflush(ptr noundef %12)
  br label %reoUnitsAddToFreeUnitList.exit

14:                                               ; preds = %5
  %15 = tail call noalias dereferenceable_or_null(240000) ptr @malloc(i64 noundef 240000) #9
  store ptr %15, ptr %2, align 8, !tbaa !3
  br label %16

16:                                               ; preds = %16, %14
  %indvars.iv.i = phi i64 [ 0, %14 ], [ %indvars.iv.next.i, %16 ]
  %17 = getelementptr inbounds nuw %struct._reo_unit, ptr %15, i64 %indvars.iv.i
  %18 = getelementptr inbounds nuw i8, ptr %17, i64 48
  %19 = getelementptr inbounds nuw i8, ptr %17, i64 32
  store ptr %18, ptr %19, align 8, !tbaa !22
  %indvars.iv.next.i = add nuw nsw i64 %indvars.iv.i, 1
  %exitcond.not.i = icmp eq i64 %indvars.iv.next.i, 4999
  br i1 %exitcond.not.i, label %20, label %16, !llvm.loop !25

20:                                               ; preds = %16
  %21 = getelementptr inbounds nuw i8, ptr %15, i64 239984
  store ptr null, ptr %21, align 8, !tbaa !22
  %22 = getelementptr inbounds nuw i8, ptr %0, i64 248
  %23 = load ptr, ptr %22, align 8, !tbaa !27
  %24 = add nsw i32 %7, 1
  store i32 %24, ptr %6, align 8, !tbaa !18
  %25 = sext i32 %7 to i64
  %26 = getelementptr inbounds ptr, ptr %23, i64 %25
  store ptr %15, ptr %26, align 8, !tbaa !28
  br label %reoUnitsAddToFreeUnitList.exit

reoUnitsAddToFreeUnitList.exit:                   ; preds = %20, %11, %1
  %27 = load ptr, ptr %2, align 8, !tbaa !3
  %28 = getelementptr inbounds nuw i8, ptr %27, i64 32
  %29 = load ptr, ptr %28, align 8, !tbaa !22
  store ptr %29, ptr %2, align 8, !tbaa !3
  %30 = getelementptr inbounds nuw i8, ptr %0, i64 264
  %31 = load i32, ptr %30, align 8, !tbaa !29
  %32 = add nsw i32 %31, 1
  store i32 %32, ptr %30, align 8, !tbaa !29
  ret ptr %27
}

; Function Attrs: mustprogress nofree norecurse nosync nounwind willreturn memory(argmem: readwrite) uwtable
define void @reoUnitsRecycleUnit(ptr noundef captures(none) %0, ptr noundef initializes((32, 40)) %1) local_unnamed_addr #1 {
  %3 = getelementptr inbounds nuw i8, ptr %0, i64 240
  %4 = load ptr, ptr %3, align 8, !tbaa !3
  %5 = getelementptr inbounds nuw i8, ptr %1, i64 32
  store ptr %4, ptr %5, align 8, !tbaa !22
  store ptr %1, ptr %3, align 8, !tbaa !3
  %6 = getelementptr inbounds nuw i8, ptr %0, i64 264
  %7 = load i32, ptr %6, align 8, !tbaa !29
  %8 = add nsw i32 %7, -1
  store i32 %8, ptr %6, align 8, !tbaa !29
  ret void
}

; Function Attrs: nofree norecurse nosync nounwind memory(readwrite, inaccessiblemem: none) uwtable
define void @reoUnitsRecycleUnitList(ptr noundef captures(none) %0, ptr noundef captures(none) %1) local_unnamed_addr #2 {
  %3 = getelementptr inbounds nuw i8, ptr %1, i64 48
  %4 = load ptr, ptr %3, align 8, !tbaa !30
  %5 = icmp eq ptr %4, null
  br i1 %5, label %12, label %.preheader

.preheader:                                       ; preds = %2, %.preheader
  %.01012 = phi ptr [ %7, %.preheader ], [ %4, %2 ]
  %6 = getelementptr inbounds nuw i8, ptr %.01012, i64 32
  %7 = load ptr, ptr %6, align 8, !tbaa !22
  %.not = icmp eq ptr %7, null
  br i1 %.not, label %8, label %.preheader, !llvm.loop !32

8:                                                ; preds = %.preheader
  %9 = getelementptr inbounds nuw i8, ptr %.01012, i64 32
  %10 = getelementptr inbounds nuw i8, ptr %0, i64 240
  %11 = load ptr, ptr %10, align 8, !tbaa !3
  store ptr %11, ptr %9, align 8, !tbaa !22
  store ptr %4, ptr %10, align 8, !tbaa !3
  tail call void @llvm.memset.p0.i64(ptr noundef nonnull align 8 dereferenceable(56) %1, i8 0, i64 56, i1 false)
  br label %12

12:                                               ; preds = %2, %8
  ret void
}

; Function Attrs: mustprogress nocallback nofree nounwind willreturn memory(argmem: write)
declare void @llvm.memset.p0.i64(ptr writeonly captures(none), i8, i64, i1 immarg) #3

; Function Attrs: nounwind uwtable
define void @reoUnitsStopDispenser(ptr noundef captures(none) %0) local_unnamed_addr #4 {
  %2 = getelementptr inbounds nuw i8, ptr %0, i64 256
  %3 = load i32, ptr %2, align 8, !tbaa !18
  %4 = icmp sgt i32 %3, 0
  br i1 %4, label %.lr.ph, label %._crit_edge

.lr.ph:                                           ; preds = %1
  %5 = getelementptr inbounds nuw i8, ptr %0, i64 248
  %.pre = load ptr, ptr %5, align 8, !tbaa !27
  br label %6

6:                                                ; preds = %.lr.ph, %14
  %7 = phi i32 [ %3, %.lr.ph ], [ %15, %14 ]
  %8 = phi ptr [ %.pre, %.lr.ph ], [ %16, %14 ]
  %indvars.iv = phi i64 [ 0, %.lr.ph ], [ %indvars.iv.next, %14 ]
  %9 = getelementptr inbounds nuw ptr, ptr %8, i64 %indvars.iv
  %10 = load ptr, ptr %9, align 8, !tbaa !28
  %.not = icmp eq ptr %10, null
  br i1 %.not, label %14, label %11

11:                                               ; preds = %6
  tail call void @free(ptr noundef nonnull %10) #10
  %12 = load ptr, ptr %5, align 8, !tbaa !27
  %13 = getelementptr inbounds nuw ptr, ptr %12, i64 %indvars.iv
  store ptr null, ptr %13, align 8, !tbaa !28
  %.pre12 = load i32, ptr %2, align 8, !tbaa !18
  br label %14

14:                                               ; preds = %11, %6
  %15 = phi i32 [ %.pre12, %11 ], [ %7, %6 ]
  %16 = phi ptr [ %12, %11 ], [ %8, %6 ]
  %indvars.iv.next = add nuw nsw i64 %indvars.iv, 1
  %17 = sext i32 %15 to i64
  %18 = icmp slt i64 %indvars.iv.next, %17
  br i1 %18, label %6, label %._crit_edge, !llvm.loop !33

._crit_edge:                                      ; preds = %14, %1
  store i32 0, ptr %2, align 8, !tbaa !18
  ret void
}

; Function Attrs: mustprogress nounwind willreturn allockind("free") memory(argmem: readwrite, inaccessiblemem: readwrite)
declare void @free(ptr allocptr noundef captures(none)) local_unnamed_addr #5

; Function Attrs: mustprogress nofree norecurse nosync nounwind willreturn memory(argmem: readwrite) uwtable
define void @reoUnitsAddUnitToPlane(ptr noundef captures(none) %0, ptr noundef %1) local_unnamed_addr #1 {
  %3 = getelementptr inbounds nuw i8, ptr %0, i64 48
  %4 = load ptr, ptr %3, align 8, !tbaa !30
  store ptr %1, ptr %3, align 8, !tbaa !30
  %5 = getelementptr inbounds nuw i8, ptr %1, i64 32
  store ptr %4, ptr %5, align 8, !tbaa !22
  %6 = getelementptr inbounds nuw i8, ptr %0, i64 4
  %7 = load i32, ptr %6, align 4, !tbaa !34
  %8 = add nsw i32 %7, 1
  store i32 %8, ptr %6, align 4, !tbaa !34
  ret void
}

; Function Attrs: nofree nounwind
declare noundef i32 @fflush(ptr noundef captures(none)) local_unnamed_addr #6

; Function Attrs: mustprogress nofree nounwind willreturn allockind("alloc,uninitialized") allocsize(0) memory(inaccessiblemem: readwrite)
declare noalias noundef ptr @malloc(i64 noundef) local_unnamed_addr #7

; Function Attrs: nofree nounwind
declare noundef i32 @puts(ptr noundef readonly captures(none)) local_unnamed_addr #8


!llvm.module.flags = !{!0, !1, !2}

!0 = !{i32 1, !"wchar_size", i32 4}
!1 = !{i32 8, !"PIC Level", i32 2}
!2 = !{i32 7, !"uwtable", i32 2}
!3 = !{!4, !17, i64 240}
!4 = !{!"_reo_man", !5, i64 0, !5, i64 4, !5, i64 8, !5, i64 12, !5, i64 16, !5, i64 20, !8, i64 24, !10, i64 32, !5, i64 40, !10, i64 48, !5, i64 56, !5, i64 60, !10, i64 64, !11, i64 72, !10, i64 80, !12, i64 88, !5, i64 96, !5, i64 100, !5, i64 104, !5, i64 108, !5, i64 112, !5, i64 116, !13, i64 120, !13, i64 128, !13, i64 136, !10, i64 144, !10, i64 152, !10, i64 160, !14, i64 168, !5, i64 176, !12, i64 184, !5, i64 192, !5, i64 196, !15, i64 200, !5, i64 208, !5, i64 212, !5, i64 216, !16, i64 224, !5, i64 232, !5, i64 236, !17, i64 240, !12, i64 248, !5, i64 256, !5, i64 260, !5, i64 264, !5, i64 268, !5, i64 272, !5, i64 276, !5, i64 280}
!5 = !{!"int", !6, i64 0}
!6 = !{!"omnipotent char", !7, i64 0}
!7 = !{!"Simple C/C++ TBAA"}
!8 = !{!"p1 _ZTS9DdManager", !9, i64 0}
!9 = !{!"any pointer", !6, i64 0}
!10 = !{!"p1 int", !9, i64 0}
!11 = !{!"p1 double", !9, i64 0}
!12 = !{!"p2 _ZTS9_reo_unit", !9, i64 0}
!13 = !{!"double", !6, i64 0}
!14 = !{!"p1 _ZTS10_reo_plane", !9, i64 0}
!15 = !{!"p1 _ZTS9_reo_hash", !9, i64 0}
!16 = !{!"p2 _ZTS6DdNode", !9, i64 0}
!17 = !{!"p1 _ZTS9_reo_unit", !9, i64 0}
!18 = !{!4, !5, i64 256}
!19 = !{!4, !5, i64 260}
!20 = !{!21, !21, i64 0}
!21 = !{!"p1 _ZTS8_IO_FILE", !9, i64 0}
!22 = !{!23, !17, i64 32}
!23 = !{!"_reo_unit", !24, i64 0, !24, i64 2, !24, i64 4, !24, i64 6, !5, i64 8, !17, i64 16, !17, i64 24, !17, i64 32, !13, i64 40}
!24 = !{!"short", !6, i64 0}
!25 = distinct !{!25, !26}
!26 = !{!"llvm.loop.mustprogress"}
!27 = !{!4, !12, i64 248}
!28 = !{!17, !17, i64 0}
!29 = !{!4, !5, i64 264}
!30 = !{!31, !17, i64 48}
!31 = !{!"_reo_plane", !5, i64 0, !5, i64 4, !5, i64 8, !13, i64 16, !13, i64 24, !13, i64 32, !13, i64 40, !17, i64 48}
!32 = distinct !{!32, !26}
!33 = distinct !{!33, !26}
!34 = !{!31, !5, i64 4}
